target datalayout = "e-m:e-p270:32:32-p271:32:32-p272:64:64-i64:64-i128:128-f80:128-n8:16:32:64-S128"
target triple = "x86_64-pc-linux-gnu"

%"class.duckdb::vector.12" = type { %"class.std::vector.13" }
%"class.std::vector.13" = type { %"struct.std::_Vector_base.14" }
%"struct.std::_Vector_base.14" = type { %"struct.std::_Vector_base<std::reference_wrapper<duckdb::PhysicalOperator>, std::allocator<std::reference_wrapper<duckdb::PhysicalOperator>>>::_Vector_impl" }
%"struct.std::_Vector_base<std::reference_wrapper<duckdb::PhysicalOperator>, std::allocator<std::reference_wrapper<duckdb::PhysicalOperator>>>::_Vector_impl" = type { %"struct.std::_Vector_base<std::reference_wrapper<duckdb::PhysicalOperator>, std::allocator<std::reference_wrapper<duckdb::PhysicalOperator>>>::_Vector_impl_data" }
%"struct.std::_Vector_base<std::reference_wrapper<duckdb::PhysicalOperator>, std::allocator<std::reference_wrapper<duckdb::PhysicalOperator>>>::_Vector_impl_data" = type { ptr, ptr, ptr }
%"class.duckdb::optional_ptr" = type { ptr }
%"class.std::mutex" = type { %"class.std::__mutex_base" }
%"class.std::__mutex_base" = type { %union.pthread_mutex_t }
%union.pthread_mutex_t = type { %struct.__pthread_mutex_s }
%struct.__pthread_mutex_s = type { i32, i32, i32, i32, i32, i16, i16, %struct.__pthread_internal_list }
%struct.__pthread_internal_list = type { ptr, ptr }
%"struct.std::atomic" = type { %"struct.std::__atomic_base" }
%"struct.std::__atomic_base" = type { i64 }
%"class.std::__shared_count" = type { ptr }
%"class.duckdb::vector.38" = type { %"class.std::vector.39" }
%"class.std::vector.39" = type { %"struct.std::_Vector_base.40" }
%"struct.std::_Vector_base.40" = type { %"struct.std::_Vector_base<duckdb::shared_ptr<duckdb::Pipeline>, std::allocator<duckdb::shared_ptr<duckdb::Pipeline>>>::_Vector_impl" }
%"struct.std::_Vector_base<duckdb::shared_ptr<duckdb::Pipeline>, std::allocator<duckdb::shared_ptr<duckdb::Pipeline>>>::_Vector_impl" = type { %"struct.std::_Vector_base<duckdb::shared_ptr<duckdb::Pipeline>, std::allocator<duckdb::shared_ptr<duckdb::Pipeline>>>::_Vector_impl_data" }
%"struct.std::_Vector_base<duckdb::shared_ptr<duckdb::Pipeline>, std::allocator<duckdb::shared_ptr<duckdb::Pipeline>>>::_Vector_impl_data" = type { ptr, ptr, ptr }
%"struct.std::__detail::_Hash_node_base" = type { ptr }
%"struct.std::__detail::_Prime_rehash_policy" = type { float, i64 }
%"class.duckdb::Executor" = type { ptr, %"class.duckdb::optional_ptr", %"class.duckdb::unique_ptr.29", %"class.std::mutex", %"class.duckdb::vector.38", %"class.duckdb::vector.38", %"class.duckdb::vector.12", %"class.duckdb::unique_ptr.44", i64, %"class.duckdb::unique_ptr.53", %"class.duckdb::vector.62", %"class.duckdb::shared_ptr.68", %"class.duckdb::TaskErrorManager", %"struct.std::atomic", i64, i8, i8, %"class.duckdb::shared_ptr.78", %"class.std::unordered_map", %"class.std::condition_variable", %"struct.std::atomic", %"struct.std::atomic" }
%"class.duckdb::unique_ptr.29" = type { %"class.std::unique_ptr.30" }
%"class.std::unique_ptr.30" = type { %"struct.std::__uniq_ptr_data.31" }
%"struct.std::__uniq_ptr_data.31" = type { %"class.std::__uniq_ptr_impl.32" }
%"class.std::__uniq_ptr_impl.32" = type { %"class.std::tuple.33" }
%"class.std::tuple.33" = type { %"struct.std::_Tuple_impl.34" }
%"struct.std::_Tuple_impl.34" = type { %"struct.std::_Head_base.37" }
%"struct.std::_Head_base.37" = type { ptr }
%"class.duckdb::unique_ptr.44" = type { %"class.std::unique_ptr.45" }
%"class.std::unique_ptr.45" = type { %"struct.std::__uniq_ptr_data.46" }
%"struct.std::__uniq_ptr_data.46" = type { %"class.std::__uniq_ptr_impl.47" }
%"class.std::__uniq_ptr_impl.47" = type { %"class.std::tuple.48" }
%"class.std::tuple.48" = type { %"struct.std::_Tuple_impl.49" }
%"struct.std::_Tuple_impl.49" = type { %"struct.std::_Head_base.52" }
%"struct.std::_Head_base.52" = type { ptr }
%"class.duckdb::unique_ptr.53" = type { %"class.std::unique_ptr.54" }
%"class.std::unique_ptr.54" = type { %"struct.std::__uniq_ptr_data.55" }
%"struct.std::__uniq_ptr_data.55" = type { %"class.std::__uniq_ptr_impl.56" }
%"class.std::__uniq_ptr_impl.56" = type { %"class.std::tuple.57" }
%"class.std::tuple.57" = type { %"struct.std::_Tuple_impl.58" }
%"struct.std::_Tuple_impl.58" = type { %"struct.std::_Head_base.61" }
%"struct.std::_Head_base.61" = type { ptr }
%"class.duckdb::vector.62" = type { %"class.std::vector.63" }
%"class.std::vector.63" = type { %"struct.std::_Vector_base.64" }
%"struct.std::_Vector_base.64" = type { %"struct.std::_Vector_base<duckdb::shared_ptr<duckdb::Event>, std::allocator<duckdb::shared_ptr<duckdb::Event>>>::_Vector_impl" }
%"struct.std::_Vector_base<duckdb::shared_ptr<duckdb::Event>, std::allocator<duckdb::shared_ptr<duckdb::Event>>>::_Vector_impl" = type { %"struct.std::_Vector_base<duckdb::shared_ptr<duckdb::Event>, std::allocator<duckdb::shared_ptr<duckdb::Event>>>::_Vector_impl_data" }
%"struct.std::_Vector_base<duckdb::shared_ptr<duckdb::Event>, std::allocator<duckdb::shared_ptr<duckdb::Event>>>::_Vector_impl_data" = type { ptr, ptr, ptr }
%"class.duckdb::shared_ptr.68" = type { %"class.std::shared_ptr.69" }
%"class.std::shared_ptr.69" = type { %"class.std::__shared_ptr.70" }
%"class.std::__shared_ptr.70" = type { ptr, %"class.std::__shared_count" }
%"class.duckdb::TaskErrorManager" = type { %"class.std::mutex", %"class.duckdb::vector.72" }
%"class.duckdb::vector.72" = type { %"class.std::vector.73" }
%"class.std::vector.73" = type { %"struct.std::_Vector_base.74" }
%"struct.std::_Vector_base.74" = type { %"struct.std::_Vector_base<duckdb::ErrorData, std::allocator<duckdb::ErrorData>>::_Vector_impl" }
%"struct.std::_Vector_base<duckdb::ErrorData, std::allocator<duckdb::ErrorData>>::_Vector_impl" = type { %"struct.std::_Vector_base<duckdb::ErrorData, std::allocator<duckdb::ErrorData>>::_Vector_impl_data" }
%"struct.std::_Vector_base<duckdb::ErrorData, std::allocator<duckdb::ErrorData>>::_Vector_impl_data" = type { ptr, ptr, ptr }
%"class.duckdb::shared_ptr.78" = type { %"class.std::shared_ptr.79" }
%"class.std::shared_ptr.79" = type { %"class.std::__shared_ptr.80" }
%"class.std::__shared_ptr.80" = type { ptr, %"class.std::__shared_count" }
%"class.std::unordered_map" = type { %"class.std::_Hashtable" }
%"class.std::_Hashtable" = type { ptr, i64, %"struct.std::__detail::_Hash_node_base", i64, %"struct.std::__detail::_Prime_rehash_policy", ptr }
%"class.std::condition_variable" = type { %"class.std::__condvar" }
%"class.std::__condvar" = type { %union.pthread_cond_t }
%union.pthread_cond_t = type { %struct.__pthread_cond_s }
%struct.__pthread_cond_s = type { %union.__atomic_wide_counter, %union.__atomic_wide_counter, [2 x i32], [2 x i32], i32, i32, [2 x i32] }
%union.__atomic_wide_counter = type { i64 }
%"class.duckdb::PhysicalOperator" = type { ptr, i8, %"class.duckdb::vector.165", %"class.duckdb::vector.171", i64, %"class.duckdb::unique_ptr.177", %"class.duckdb::unique_ptr.186", %"class.std::mutex" }
%"class.duckdb::vector.165" = type { %"class.std::vector.166" }
%"class.std::vector.166" = type { %"struct.std::_Vector_base.167" }
%"struct.std::_Vector_base.167" = type { %"struct.std::_Vector_base<duckdb::unique_ptr<duckdb::PhysicalOperator>, std::allocator<duckdb::unique_ptr<duckdb::PhysicalOperator>>>::_Vector_impl" }
%"struct.std::_Vector_base<duckdb::unique_ptr<duckdb::PhysicalOperator>, std::allocator<duckdb::unique_ptr<duckdb::PhysicalOperator>>>::_Vector_impl" = type { %"struct.std::_Vector_base<duckdb::unique_ptr<duckdb::PhysicalOperator>, std::allocator<duckdb::unique_ptr<duckdb::PhysicalOperator>>>::_Vector_impl_data" }
%"struct.std::_Vector_base<duckdb::unique_ptr<duckdb::PhysicalOperator>, std::allocator<duckdb::unique_ptr<duckdb::PhysicalOperator>>>::_Vector_impl_data" = type { ptr, ptr, ptr }
%"class.duckdb::vector.171" = type { %"class.std::vector.172" }
%"class.std::vector.172" = type { %"struct.std::_Vector_base.173" }
%"struct.std::_Vector_base.173" = type { %"struct.std::_Vector_base<duckdb::LogicalType, std::allocator<duckdb::LogicalType>>::_Vector_impl" }
%"struct.std::_Vector_base<duckdb::LogicalType, std::allocator<duckdb::LogicalType>>::_Vector_impl" = type { %"struct.std::_Vector_base<duckdb::LogicalType, std::allocator<duckdb::LogicalType>>::_Vector_impl_data" }
%"struct.std::_Vector_base<duckdb::LogicalType, std::allocator<duckdb::LogicalType>>::_Vector_impl_data" = type { ptr, ptr, ptr }
%"class.duckdb::unique_ptr.177" = type { %"class.std::unique_ptr.178" }
%"class.std::unique_ptr.178" = type { %"struct.std::__uniq_ptr_data.179" }
%"struct.std::__uniq_ptr_data.179" = type { %"class.std::__uniq_ptr_impl.180" }
%"class.std::__uniq_ptr_impl.180" = type { %"class.std::tuple.181" }
%"class.std::tuple.181" = type { %"struct.std::_Tuple_impl.182" }
%"struct.std::_Tuple_impl.182" = type { %"struct.std::_Head_base.185" }
%"struct.std::_Head_base.185" = type { ptr }
%"class.duckdb::unique_ptr.186" = type { %"class.std::unique_ptr.187" }
%"class.std::unique_ptr.187" = type { %"struct.std::__uniq_ptr_data.188" }
%"struct.std::__uniq_ptr_data.188" = type { %"class.std::__uniq_ptr_impl.189" }
%"class.std::__uniq_ptr_impl.189" = type { %"class.std::tuple.190" }
%"class.std::tuple.190" = type { %"struct.std::_Tuple_impl.191" }
%"struct.std::_Tuple_impl.191" = type { %"struct.std::_Head_base.194" }
%"struct.std::_Head_base.194" = type { ptr }

; Function Attrs: mustprogress uwtable
define linkonce_odr noundef ptr @_ZN6duckdb12optional_ptrINS_16PhysicalOperatorELb1EEptEv(ptr noundef nonnull align 8 dereferenceable(8) %0) #0 comdat align 2 {
  %2 = alloca ptr, align 8
  store ptr %0, ptr %2, align 8, !tbaa !345
  %3 = load ptr, ptr %2, align 8
  call void @_ZNK6duckdb12optional_ptrINS_16PhysicalOperatorELb1EE10CheckValidEv(ptr noundef nonnull align 8 dereferenceable(8) %3)
  %4 = getelementptr inbounds nuw %"class.duckdb::optional_ptr", ptr %3, i32 0, i32 0
  %5 = load ptr, ptr %4, align 8, !tbaa !347
  ret ptr %5
}

; Function Attrs: mustprogress uwtable
define noundef zeroext i1 @_ZN6duckdb8Executor18HasResultCollectorEv(ptr noundef nonnull align 8 dereferenceable(424) %0) #0 align 2 {
  %2 = alloca ptr, align 8
  store ptr %0, ptr %2, align 8, !tbaa !62
  %3 = load ptr, ptr %2, align 8
  %4 = getelementptr inbounds nuw %"class.duckdb::Executor", ptr %3, i32 0, i32 1
  %5 = call noundef ptr @_ZN6duckdb12optional_ptrINS_16PhysicalOperatorELb1EEptEv(ptr noundef nonnull align 8 dereferenceable(8) %4)
  %6 = getelementptr inbounds nuw %"class.duckdb::PhysicalOperator", ptr %5, i32 0, i32 1
  %7 = load i8, ptr %6, align 8, !tbaa !403
  %8 = icmp eq i8 %7, 73
  ret i1 %8
}

; Function Attrs: mustprogress uwtable
define noundef zeroext i1 @_ZN6duckdb8Executor27HasStreamingResultCollectorEv(ptr noundef nonnull align 8 dereferenceable(424) %0) #0 align 2 {
  %2 = alloca i1, align 1
  %3 = alloca ptr, align 8
  %4 = alloca ptr, align 8
  store ptr %0, ptr %3, align 8, !tbaa !62
  %5 = load ptr, ptr %3, align 8
  %6 = call noundef zeroext i1 @_ZN6duckdb8Executor18HasResultCollectorEv(ptr noundef nonnull align 8 dereferenceable(424) %5)
  br i1 %6, label %8, label %7

7:                                                ; preds = %1
  store i1 false, ptr %2, align 1
  br label %17

8:                                                ; preds = %1
  call void @llvm.lifetime.start.p0(i64 8, ptr %4) #24
  %9 = getelementptr inbounds nuw %"class.duckdb::Executor", ptr %5, i32 0, i32 1
  %10 = call noundef ptr @_ZN6duckdb12optional_ptrINS_16PhysicalOperatorELb1EEptEv(ptr noundef nonnull align 8 dereferenceable(8) %9)
  %11 = call noundef nonnull align 8 dereferenceable(304) ptr @_ZN6duckdb16PhysicalOperator4CastINS_23PhysicalResultCollectorEEERT_v(ptr noundef nonnull align 8 dereferenceable(128) %10)
  store ptr %11, ptr %4, align 8, !tbaa !647
  %12 = load ptr, ptr %4, align 8, !tbaa !647
  %13 = load ptr, ptr %12, align 8, !tbaa !57
  %14 = getelementptr inbounds ptr, ptr %13, i64 39
  %15 = load ptr, ptr %14, align 8
  %16 = call noundef zeroext i1 %15(ptr noundef nonnull align 8 dereferenceable(304) %12)
  store i1 %16, ptr %2, align 1
  call void @llvm.lifetime.end.p0(i64 8, ptr %4) #24
  br label %17

17:                                               ; preds = %8, %7
  %18 = load i1, ptr %2, align 1
  ret i1 %18
}