; Function Attrs: mustprogress uwtable
define noundef zeroext i1 @_ZN6duckdb8Executor27HasStreamingResultCollectorEv(ptr noundef nonnull align 8 dereferenceable(424) %0) local_unnamed_addr #0 align 2 {
  %2 = getelementptr inbounds nuw i8, ptr %0, i64 8
  tail call void @_ZNK6duckdb12optional_ptrINS_16PhysicalOperatorELb1EE10CheckValidEv(ptr noundef nonnull align 8 dereferenceable(8) %2)
  %3 = load ptr, ptr %2, align 8, !tbaa !401
  %4 = getelementptr inbounds nuw i8, ptr %3, i64 8
  %5 = load i8, ptr %4, align 8, !tbaa !402
  %6 = icmp eq i8 %5, 73
  br i1 %6, label %7, label %14

7:                                                ; preds = %1
  tail call void @_ZNK6duckdb12optional_ptrINS_16PhysicalOperatorELb1EE10CheckValidEv(ptr noundef nonnull align 8 dereferenceable(8) %2)
  %8 = load ptr, ptr %2, align 8, !tbaa !401
  %9 = tail call noundef nonnull align 8 dereferenceable(304) ptr @_ZN6duckdb16PhysicalOperator4CastINS_23PhysicalResultCollectorEEERT_v(ptr noundef nonnull align 8 dereferenceable(128) %8)
  %10 = load ptr, ptr %9, align 8, !tbaa !54
  %11 = getelementptr inbounds nuw i8, ptr %10, i64 312
  %12 = load ptr, ptr %11, align 8
  %13 = tail call noundef zeroext i1 %12(ptr noundef nonnull align 8 dereferenceable(304) %9)
  br label %14

14:                                               ; preds = %1, %7
  %.0 = phi i1 [ %13, %7 ], [ false, %1 ]
  ret i1 %.0
}